; Function Attrs: null_pointer_is_valid sspstrong uwtable
define i32 @prefs_set_enum_string_value(ptr noundef captures(address_is_null) %0, ptr noundef %1, i32 noundef %2) local_unnamed_addr #1 {
  %4 = getelementptr inbounds nuw i8, ptr %0, i64 64
  %5 = load ptr, ptr %4, align 8
  %6 = getelementptr inbounds nuw i8, ptr %0, i64 40
  %7 = load ptr, ptr %6, align 8
  %8 = load i32, ptr %7, align 4
  %9 = load ptr, ptr %5, align 8
  %.not22.i = icmp eq ptr %9, null
  br i1 %.not22.i, label %find_val_for_string.exit, label %.lr.ph.i.preheader

.lr.ph.i.preheader:                               ; preds = %3
  %10 = tail call i32 @g_ascii_strcasecmp(ptr noundef %1, ptr noundef nonnull %9)
  %11 = icmp eq i32 %10, 0
  br i1 %11, label %.loopexit.sink.split.i, label %.lr.ph

.lr.ph:                                           ; preds = %.lr.ph.i.preheader, %.lr.ph.i
  %.023.i10 = phi i32 [ %12, %.lr.ph.i ], [ 0, %.lr.ph.i.preheader ]
  %12 = add i32 %.023.i10, 1
  %13 = sext i32 %12 to i64
  %14 = getelementptr %struct.enum_val_t, ptr %5, i64 %13
  %15 = load ptr, ptr %14, align 8
  %.not.i = icmp eq ptr %15, null
  br i1 %.not.i, label %.preheader.i, label %.lr.ph.i, !llvm.loop !19

.preheader.i:                                     ; preds = %.lr.ph
  %.pre.i = load ptr, ptr %5, align 8
  %16 = icmp eq ptr %.pre.i, null
  br i1 %16, label %find_val_for_string.exit, label %.lr.ph26.i

.lr.ph.i:                                         ; preds = %.lr.ph
  %17 = tail call i32 @g_ascii_strcasecmp(ptr noundef %1, ptr noundef nonnull %15)
  %18 = icmp eq i32 %17, 0
  br i1 %18, label %.loopexit.sink.split.i, label %.lr.ph, !llvm.loop !19

19:                                               ; preds = %.lr.ph26.i
  %20 = add i32 %.125.i, 1
  %21 = sext i32 %20 to i64
  %22 = getelementptr %struct.enum_val_t, ptr %5, i64 %21
  %23 = load ptr, ptr %22, align 8
  %.not19.i = icmp eq ptr %23, null
  br i1 %.not19.i, label %find_val_for_string.exit, label %.lr.ph26.i, !llvm.loop !20

.lr.ph26.i:                                       ; preds = %.preheader.i, %19
  %24 = phi ptr [ %22, %19 ], [ %5, %.preheader.i ]
  %.125.i = phi i32 [ %20, %19 ], [ 0, %.preheader.i ]
  %25 = getelementptr inbounds nuw i8, ptr %24, i64 8
  %26 = load ptr, ptr %25, align 8
  %27 = tail call i32 @g_ascii_strcasecmp(ptr noundef %1, ptr noundef %26)
  %28 = icmp eq i32 %27, 0
  br i1 %28, label %.loopexit.sink.split.i, label %19

.loopexit.sink.split.i:                           ; preds = %.lr.ph.i, %.lr.ph26.i, %.lr.ph.i.preheader
  %.lcssa.sink.i = phi ptr [ %5, %.lr.ph.i.preheader ], [ %24, %.lr.ph26.i ], [ %14, %.lr.ph.i ]
  %29 = getelementptr inbounds nuw i8, ptr %.lcssa.sink.i, i64 16
  %30 = load i32, ptr %29, align 8
  br label %find_val_for_string.exit

find_val_for_string.exit:                         ; preds = %19, %3, %.preheader.i, %.loopexit.sink.split.i
  %.017.i = phi i32 [ %8, %.preheader.i ], [ %8, %3 ], [ %30, %.loopexit.sink.split.i ], [ %8, %19 ]
  switch i32 %2, label %46 [
    i32 0, label %31
    i32 1, label %36
    i32 2, label %41
  ]

31:                                               ; preds = %find_val_for_string.exit
  %32 = getelementptr inbounds nuw i8, ptr %0, i64 56
  %33 = load i32, ptr %32, align 8
  %.not18.i = icmp eq i32 %33, %.017.i
  br i1 %.not18.i, label %prefs_set_enum_value.exit, label %34

34:                                               ; preds = %31
  store i32 %.017.i, ptr %32, align 8
  %35 = icmp eq ptr %0, null
  br i1 %35, label %prefs_set_enum_value.exit, label %prefs_get_effect_flags.exit.sink.split.i

36:                                               ; preds = %find_val_for_string.exit
  %37 = getelementptr inbounds nuw i8, ptr %0, i64 48
  %38 = load i32, ptr %37, align 8
  %.not17.i = icmp eq i32 %38, %.017.i
  br i1 %.not17.i, label %prefs_set_enum_value.exit, label %39

39:                                               ; preds = %36
  store i32 %.017.i, ptr %37, align 8
  %40 = icmp eq ptr %0, null
  br i1 %40, label %prefs_set_enum_value.exit, label %prefs_get_effect_flags.exit.sink.split.i

41:                                               ; preds = %find_val_for_string.exit
  %42 = load ptr, ptr %6, align 8
  %43 = load i32, ptr %42, align 4
  %.not.i5 = icmp eq i32 %43, %.017.i
  br i1 %.not.i5, label %prefs_set_enum_value.exit, label %44

44:                                               ; preds = %41
  store i32 %.017.i, ptr %42, align 4
  %45 = icmp eq ptr %0, null
  br i1 %45, label %prefs_set_enum_value.exit, label %prefs_get_effect_flags.exit.sink.split.i

46:                                               ; preds = %find_val_for_string.exit
  tail call void (ptr, i32, ptr, i64, ptr, ptr, ...) @ws_log_fatal_full(ptr noundef nonnull @.str, i32 noundef 7, ptr noundef nonnull @.str.1, i64 noundef 1379, ptr noundef nonnull @__func__.prefs_set_enum_value, ptr noundef nonnull @.str.8) #26
  unreachable

prefs_get_effect_flags.exit.sink.split.i:         ; preds = %44, %39, %34
  %47 = getelementptr inbounds nuw i8, ptr %0, i64 32
  %48 = load i32, ptr %47, align 8
  br label %prefs_set_enum_value.exit

prefs_set_enum_value.exit:                        ; preds = %31, %34, %36, %39, %41, %44, %prefs_get_effect_flags.exit.sink.split.i
  %.0.i = phi i32 [ 0, %41 ], [ 0, %36 ], [ 0, %31 ], [ 0, %34 ], [ 0, %39 ], [ 0, %44 ], [ %48, %prefs_get_effect_flags.exit.sink.split.i ]
  ret i32 %.0.i
}